target datalayout = "e-m:e-p270:32:32-p271:32:32-p272:64:64-i64:64-i128:128-f80:128-n8:16:32:64-S128"
target triple = "x86_64-pc-linux-gnu"

%struct.jit_State = type { %struct.GCtrace, ptr, ptr, ptr, ptr, ptr, ptr, i32, i32, i32, i8, i8, %struct.IRType1, i8, %struct.FoldState, ptr, i32, i32, i32, i32, i32, i32, i32, [1 x i32], [5 x %union.TValue], [3 x %union.TValue], ptr, i32, i32, i32, i32, ptr, ptr, i32, i32, i8, ptr, i32, i32, i16, [101 x i16], [258 x i32], [15 x i32], [16 x ptr], [64 x %struct.HotPenalty], i32, [16 x %struct.BPropEntry], i32, %struct.ScEvEntry, ptr, i32, i32, i32, ptr, i32, i32, ptr, ptr, ptr, i64, i64, %union.TValue, ptr, i32, i32 }
%struct.GCtrace = type { %struct.GCRef, i8, i8, i16, i32, i32, %struct.GCRef, ptr, i32, i32, ptr, ptr, %struct.GCRef, %struct.MRef, i32, i32, ptr, i32, i16, i16, i16, i16, i16, i16, i16, i8, i8, i8, i8 }
%struct.GCRef = type { i64 }
%struct.MRef = type { i64 }
%struct.IRType1 = type { i8 }
%struct.FoldState = type { %union.IRIns, [2 x %union.IRIns], [2 x %union.IRIns] }
%union.IRIns = type { %struct.GCRef }
%struct.HotPenalty = type { %struct.MRef, i16, i16 }
%struct.BPropEntry = type { i16, i16, i32 }
%struct.ScEvEntry = type { %struct.MRef, i16, i16, i16, i16, %struct.IRType1, i8 }
%union.TValue = type { i64 }
%struct.RecordFFData = type { ptr, i64, i32 }
%struct.GG_State = type { %struct.lua_State, %struct.global_State, %struct.jit_State, [64 x i16], [243 x ptr], [57 x i32] }
%struct.lua_State = type { %struct.GCRef, i8, i8, i8, i8, %struct.MRef, %struct.GCRef, ptr, ptr, %struct.MRef, %struct.MRef, %struct.GCRef, %struct.GCRef, ptr, i32 }
%struct.global_State = type { ptr, ptr, %struct.GCState, %struct.GCstr, i8, i8, i8, i8, %struct.StrInternState, i32, %struct.GCRef, %struct.SBuf, %union.TValue, %union.TValue, %struct.Node, %union.TValue, %struct.GCupval, i32, i32, ptr, ptr, ptr, i32, i32, %struct.GCRef, %struct.MRef, %struct.MRef, %struct.PRNGState, [39 x %struct.GCRef] }
%struct.GCState = type { i64, i64, i8, i8, i8, i8, i32, %struct.GCRef, %struct.MRef, %struct.GCRef, %struct.GCRef, %struct.GCRef, %struct.GCRef, i64, i64, i32, i32, %struct.MRef }
%struct.GCstr = type { %struct.GCRef, i8, i8, i8, i8, i32, i32, i32 }
%struct.StrInternState = type { ptr, i32, i32, i32, i8, i8, i8, i8, i64 }
%struct.SBuf = type { ptr, ptr, ptr, %struct.MRef }
%struct.Node = type { %union.TValue, %union.TValue, %struct.MRef }
%struct.GCupval = type { %struct.GCRef, i8, i8, i8, i8, %union.anon, %struct.MRef, i32 }
%union.anon = type { %struct.anon.3 }
%struct.anon.3 = type { %struct.GCRef, %struct.GCRef }
%struct.PRNGState = type { [4 x i64] }
%struct.GCcdata = type { %struct.GCRef, i8, i8, i16 }
%struct.CType = type { i32, i32, i16, i16, %struct.GCRef }
%struct.anon = type { i16, i16, i16, i16 }
%struct.CTState = type { ptr, i32, i32, ptr, ptr, ptr, %struct.CCallback, [128 x i16] }
%struct.CCallback = type { [8 x %union.FPRCBArg], [8 x i64], ptr, ptr, ptr, i32, i32, i32 }
%union.FPRCBArg = type { double }

; Function Attrs: alwaysinline nounwind uwtable
define internal i32 @ctype_check(ptr noundef %0, i32 noundef %1) #2 {
  %3 = alloca ptr, align 8
  %4 = alloca i32, align 4
  store ptr %0, ptr %3, align 8, !tbaa !49
  store i32 %1, ptr %4, align 4, !tbaa !31
  %5 = load i32, ptr %4, align 4, !tbaa !31
  ret i32 %5
}

; Function Attrs: alwaysinline nounwind uwtable
define internal ptr @ctype_child(ptr noundef %0, ptr noundef %1) #2 {
  %3 = alloca ptr, align 8
  %4 = alloca ptr, align 8
  store ptr %0, ptr %3, align 8, !tbaa !49
  store ptr %1, ptr %4, align 8, !tbaa !53
  %5 = load ptr, ptr %3, align 8, !tbaa !49
  %6 = load ptr, ptr %4, align 8, !tbaa !53
  %7 = getelementptr inbounds nuw %struct.CType, ptr %6, i32 0, i32 0
  %8 = load i32, ptr %7, align 8, !tbaa !55
  %9 = and i32 %8, 65535
  %10 = call ptr @ctype_get(ptr noundef %5, i32 noundef %9)
  ret ptr %10
}

; Function Attrs: alwaysinline nounwind uwtable
define internal void @lj_ir_set_(ptr noundef %0, i16 noundef zeroext %1, i16 noundef zeroext %2, i16 noundef zeroext %3) #2 {
  %5 = alloca ptr, align 8
  %6 = alloca i16, align 2
  %7 = alloca i16, align 2
  %8 = alloca i16, align 2
  store ptr %0, ptr %5, align 8, !tbaa !4
  store i16 %1, ptr %6, align 2, !tbaa !70
  store i16 %2, ptr %7, align 2, !tbaa !70
  store i16 %3, ptr %8, align 2, !tbaa !70
  %9 = load i16, ptr %6, align 2, !tbaa !70
  %10 = load ptr, ptr %5, align 8, !tbaa !4
  %11 = getelementptr inbounds nuw %struct.jit_State, ptr %10, i32 0, i32 14
  %12 = getelementptr inbounds nuw %struct.FoldState, ptr %11, i32 0, i32 0
  %13 = getelementptr inbounds nuw %struct.anon, ptr %12, i32 0, i32 2
  store i16 %9, ptr %13, align 4, !tbaa !58
  %14 = load i16, ptr %7, align 2, !tbaa !70
  %15 = load ptr, ptr %5, align 8, !tbaa !4
  %16 = getelementptr inbounds nuw %struct.jit_State, ptr %15, i32 0, i32 14
  %17 = getelementptr inbounds nuw %struct.FoldState, ptr %16, i32 0, i32 0
  %18 = getelementptr inbounds nuw %struct.anon, ptr %17, i32 0, i32 0
  store i16 %14, ptr %18, align 8, !tbaa !58
  %19 = load i16, ptr %8, align 2, !tbaa !70
  %20 = load ptr, ptr %5, align 8, !tbaa !4
  %21 = getelementptr inbounds nuw %struct.jit_State, ptr %20, i32 0, i32 14
  %22 = getelementptr inbounds nuw %struct.FoldState, ptr %21, i32 0, i32 0
  %23 = getelementptr inbounds nuw %struct.anon, ptr %22, i32 0, i32 1
  store i16 %19, ptr %23, align 2, !tbaa !58
  ret void
}

; Function Attrs: nounwind uwtable
define internal i32 @crec_bit64_arg(ptr noundef %0, ptr noundef %1, i32 noundef %2, ptr noundef %3) #0 {
  %5 = alloca ptr, align 8
  %6 = alloca ptr, align 8
  %7 = alloca i32, align 4
  %8 = alloca ptr, align 8
  store ptr %0, ptr %5, align 8, !tbaa !4
  store ptr %1, ptr %6, align 8, !tbaa !53
  store i32 %2, ptr %7, align 4, !tbaa !31
  store ptr %3, ptr %8, align 8, !tbaa !67
  %9 = load i32, ptr %7, align 4, !tbaa !31
  %10 = and i32 %9, 520093696
  %11 = icmp eq i32 %10, 67108864
  %12 = xor i1 %11, true
  %13 = xor i1 %12, true
  %14 = zext i1 %13 to i32
  %15 = sext i32 %14 to i64
  %16 = call i64 @llvm.expect.i64(i64 %15, i64 0)
  %17 = icmp ne i64 %16, 0
  br i1 %17, label %18, label %34

18:                                               ; preds = %4
  %19 = load ptr, ptr %8, align 8, !tbaa !67
  %20 = getelementptr inbounds nuw %struct.GCRef, ptr %19, i32 0, i32 0
  %21 = load i64, ptr %20, align 8, !tbaa !58
  %22 = and i64 %21, 140737488355327
  %23 = inttoptr i64 %22 to ptr
  %24 = load ptr, ptr %8, align 8, !tbaa !67
  %25 = call i32 @lj_strscan_num(ptr noundef %23, ptr noundef %24)
  %26 = icmp ne i32 %25, 0
  br i1 %26, label %27, label %33

27:                                               ; preds = %18
  %28 = load ptr, ptr %5, align 8, !tbaa !4
  %29 = load i32, ptr %7, align 4, !tbaa !31
  %30 = trunc i32 %29 to i16
  call void @lj_ir_set_(ptr noundef %28, i16 noundef zeroext 24206, i16 noundef zeroext %30, i16 noundef zeroext 0)
  %31 = load ptr, ptr %5, align 8, !tbaa !4
  %32 = call i32 @lj_opt_fold(ptr noundef %31)
  store i32 %32, ptr %7, align 4, !tbaa !31
  br label %33

33:                                               ; preds = %27, %18
  br label %34

34:                                               ; preds = %33, %4
  %35 = load ptr, ptr %5, align 8, !tbaa !4
  %36 = load ptr, ptr %6, align 8, !tbaa !53
  %37 = load i32, ptr %7, align 4, !tbaa !31
  %38 = load ptr, ptr %8, align 8, !tbaa !67
  %39 = call i32 @crec_ct_tv(ptr noundef %35, ptr noundef %36, i32 noundef 0, i32 noundef %37, ptr noundef %38)
  ret i32 %39
}

; Function Attrs: alwaysinline nounwind uwtable
define internal ptr @ctype_get(ptr noundef %0, i32 noundef %1) #2 {
  %3 = alloca ptr, align 8
  %4 = alloca i32, align 4
  store ptr %0, ptr %3, align 8, !tbaa !49
  store i32 %1, ptr %4, align 4, !tbaa !31
  %5 = load ptr, ptr %3, align 8, !tbaa !49
  %6 = getelementptr inbounds nuw %struct.CTState, ptr %5, i32 0, i32 0
  %7 = load ptr, ptr %6, align 8, !tbaa !79
  %8 = load ptr, ptr %3, align 8, !tbaa !49
  %9 = load i32, ptr %4, align 4, !tbaa !31
  %10 = call i32 @ctype_check(ptr noundef %8, i32 noundef %9)
  %11 = zext i32 %10 to i64
  %12 = getelementptr inbounds nuw %struct.CType, ptr %7, i64 %11
  ret ptr %12
}

; Function Attrs: nounwind uwtable
define internal i32 @crec_bit64_type(ptr noundef %0, ptr noundef %1) #0 {
  %3 = alloca i32, align 4
  %4 = alloca ptr, align 8
  %5 = alloca ptr, align 8
  %6 = alloca ptr, align 8
  %7 = alloca i32, align 4
  store ptr %0, ptr %4, align 8, !tbaa !49
  store ptr %1, ptr %5, align 8, !tbaa !67
  %8 = load ptr, ptr %5, align 8, !tbaa !67
  %9 = load i64, ptr %8, align 8, !tbaa !58
  %10 = ashr i64 %9, 47
  %11 = trunc i64 %10 to i32
  %12 = icmp eq i32 %11, -11
  br i1 %12, label %13, label %47

13:                                               ; preds = %2
  call void @llvm.lifetime.start.p0(i64 8, ptr %6) #7
  %14 = load ptr, ptr %4, align 8, !tbaa !49
  %15 = load ptr, ptr %5, align 8, !tbaa !67
  %16 = getelementptr inbounds nuw %struct.GCRef, ptr %15, i32 0, i32 0
  %17 = load i64, ptr %16, align 8, !tbaa !58
  %18 = and i64 %17, 140737488355327
  %19 = inttoptr i64 %18 to ptr
  %20 = getelementptr inbounds nuw %struct.GCcdata, ptr %19, i32 0, i32 3
  %21 = load i16, ptr %20, align 2, !tbaa !58
  %22 = zext i16 %21 to i32
  %23 = call ptr @lj_ctype_rawref(ptr noundef %14, i32 noundef %22)
  store ptr %23, ptr %6, align 8, !tbaa !53
  %24 = load ptr, ptr %6, align 8, !tbaa !53
  %25 = getelementptr inbounds nuw %struct.CType, ptr %24, i32 0, i32 0
  %26 = load i32, ptr %25, align 8, !tbaa !55
  %27 = lshr i32 %26, 28
  %28 = icmp eq i32 %27, 5
  br i1 %28, label %29, label %33

29:                                               ; preds = %13
  %30 = load ptr, ptr %4, align 8, !tbaa !49
  %31 = load ptr, ptr %6, align 8, !tbaa !53
  %32 = call ptr @ctype_child(ptr noundef %30, ptr noundef %31)
  store ptr %32, ptr %6, align 8, !tbaa !53
  br label %33

33:                                               ; preds = %29, %13
  %34 = load ptr, ptr %6, align 8, !tbaa !53
  %35 = getelementptr inbounds nuw %struct.CType, ptr %34, i32 0, i32 0
  %36 = load i32, ptr %35, align 8, !tbaa !55
  %37 = and i32 %36, -58720256
  %38 = icmp eq i32 %37, 8388608
  br i1 %38, label %39, label %45

39:                                               ; preds = %33
  %40 = load ptr, ptr %6, align 8, !tbaa !53
  %41 = getelementptr inbounds nuw %struct.CType, ptr %40, i32 0, i32 1
  %42 = load i32, ptr %41, align 4, !tbaa !57
  %43 = icmp eq i32 %42, 8
  br i1 %43, label %44, label %45

44:                                               ; preds = %39
  store i32 12, ptr %3, align 4
  store i32 1, ptr %7, align 4
  br label %46

45:                                               ; preds = %39, %33
  store i32 11, ptr %3, align 4
  store i32 1, ptr %7, align 4
  br label %46

46:                                               ; preds = %45, %44
  call void @llvm.lifetime.end.p0(i64 8, ptr %6) #7
  br label %48

47:                                               ; preds = %2
  store i32 0, ptr %3, align 4
  br label %48

48:                                               ; preds = %47, %46
  %49 = load i32, ptr %3, align 4
  ret i32 %49
}

; Function Attrs: nounwind uwtable
define hidden i32 @recff_bit64_unary(ptr noundef %0, ptr noundef %1) #0 {
  %3 = alloca i32, align 4
  %4 = alloca ptr, align 8
  %5 = alloca ptr, align 8
  %6 = alloca ptr, align 8
  %7 = alloca i32, align 4
  %8 = alloca i32, align 4
  %9 = alloca i32, align 4
  store ptr %0, ptr %4, align 8, !tbaa !4
  store ptr %1, ptr %5, align 8, !tbaa !9
  call void @llvm.lifetime.start.p0(i64 8, ptr %6) #7
  %10 = load ptr, ptr %4, align 8, !tbaa !4
  %11 = getelementptr inbounds i8, ptr %10, i64 -832
  %12 = getelementptr inbounds nuw %struct.GG_State, ptr %11, i32 0, i32 1
  %13 = getelementptr inbounds nuw %struct.global_State, ptr %12, i32 0, i32 26
  %14 = getelementptr inbounds nuw %struct.MRef, ptr %13, i32 0, i32 0
  %15 = load i64, ptr %14, align 8, !tbaa !38
  %16 = inttoptr i64 %15 to ptr
  store ptr %16, ptr %6, align 8, !tbaa !49
  call void @llvm.lifetime.start.p0(i64 4, ptr %7) #7
  %17 = load ptr, ptr %6, align 8, !tbaa !49
  %18 = load ptr, ptr %5, align 8, !tbaa !9
  %19 = getelementptr inbounds nuw %struct.RecordFFData, ptr %18, i32 0, i32 0
  %20 = load ptr, ptr %19, align 8, !tbaa !33
  %21 = getelementptr inbounds %union.TValue, ptr %20, i64 0
  %22 = call i32 @crec_bit64_type(ptr noundef %17, ptr noundef %21)
  store i32 %22, ptr %7, align 4, !tbaa !31
  %23 = load i32, ptr %7, align 4, !tbaa !31
  %24 = icmp ne i32 %23, 0
  br i1 %24, label %25, label %67

25:                                               ; preds = %2
  call void @llvm.lifetime.start.p0(i64 4, ptr %8) #7
  %26 = load ptr, ptr %4, align 8, !tbaa !4
  %27 = load ptr, ptr %6, align 8, !tbaa !49
  %28 = load i32, ptr %7, align 4, !tbaa !31
  %29 = call ptr @ctype_get(ptr noundef %27, i32 noundef %28)
  %30 = load ptr, ptr %4, align 8, !tbaa !4
  %31 = getelementptr inbounds nuw %struct.jit_State, ptr %30, i32 0, i32 6
  %32 = load ptr, ptr %31, align 8, !tbaa !11
  %33 = getelementptr inbounds i32, ptr %32, i64 0
  %34 = load i32, ptr %33, align 4, !tbaa !31
  %35 = load ptr, ptr %5, align 8, !tbaa !9
  %36 = getelementptr inbounds nuw %struct.RecordFFData, ptr %35, i32 0, i32 0
  %37 = load ptr, ptr %36, align 8, !tbaa !33
  %38 = getelementptr inbounds %union.TValue, ptr %37, i64 0
  %39 = call i32 @crec_bit64_arg(ptr noundef %26, ptr noundef %29, i32 noundef %34, ptr noundef %38)
  store i32 %39, ptr %8, align 4, !tbaa !31
  %40 = load ptr, ptr %4, align 8, !tbaa !4
  %41 = load ptr, ptr %5, align 8, !tbaa !9
  %42 = getelementptr inbounds nuw %struct.RecordFFData, ptr %41, i32 0, i32 2
  %43 = load i32, ptr %42, align 8, !tbaa !64
  %44 = shl i32 %43, 8
  %45 = load i32, ptr %7, align 4, !tbaa !31
  %46 = sub i32 %45, 11
  %47 = add i32 %46, 21
  %48 = or i32 %44, %47
  %49 = trunc i32 %48 to i16
  %50 = load i32, ptr %8, align 4, !tbaa !31
  %51 = trunc i32 %50 to i16
  call void @lj_ir_set_(ptr noundef %40, i16 noundef zeroext %49, i16 noundef zeroext %51, i16 noundef zeroext 0)
  %52 = load ptr, ptr %4, align 8, !tbaa !4
  %53 = call i32 @lj_opt_fold(ptr noundef %52)
  store i32 %53, ptr %8, align 4, !tbaa !31
  %54 = load ptr, ptr %4, align 8, !tbaa !4
  %55 = load ptr, ptr %4, align 8, !tbaa !4
  %56 = load i32, ptr %7, align 4, !tbaa !31
  %57 = call i32 @lj_ir_kint(ptr noundef %55, i32 noundef %56)
  %58 = trunc i32 %57 to i16
  %59 = load i32, ptr %8, align 4, !tbaa !31
  %60 = trunc i32 %59 to i16
  call void @lj_ir_set_(ptr noundef %54, i16 noundef zeroext 21642, i16 noundef zeroext %58, i16 noundef zeroext %60)
  %61 = load ptr, ptr %4, align 8, !tbaa !4
  %62 = call i32 @lj_opt_fold(ptr noundef %61)
  %63 = load ptr, ptr %4, align 8, !tbaa !4
  %64 = getelementptr inbounds nuw %struct.jit_State, ptr %63, i32 0, i32 6
  %65 = load ptr, ptr %64, align 8, !tbaa !11
  %66 = getelementptr inbounds i32, ptr %65, i64 0
  store i32 %62, ptr %66, align 4, !tbaa !31
  store i32 1, ptr %3, align 4
  store i32 1, ptr %9, align 4
  call void @llvm.lifetime.end.p0(i64 4, ptr %8) #7
  br label %68

67:                                               ; preds = %2
  store i32 0, ptr %3, align 4
  store i32 1, ptr %9, align 4
  br label %68

68:                                               ; preds = %67, %25
  call void @llvm.lifetime.end.p0(i64 4, ptr %7) #7
  call void @llvm.lifetime.end.p0(i64 8, ptr %6) #7
  %69 = load i32, ptr %3, align 4
  ret i32 %69
}