; Function Attrs: nounwind uwtable
define hidden range(i32 0, 2) i32 @recff_bit64_unary(ptr noundef %0, ptr noundef readonly captures(none) %1) local_unnamed_addr #0 {
  %3 = getelementptr inbounds i8, ptr %0, i64 -352
  %4 = load i64, ptr %3, align 8, !tbaa !34
  %5 = inttoptr i64 %4 to ptr
  %6 = load ptr, ptr %1, align 8, !tbaa !28
  %.val = load i64, ptr %6, align 8, !tbaa !31
  %.mask.i = and i64 %.val, -140737488355328
  %7 = icmp eq i64 %.mask.i, -1548112371908608
  br i1 %7, label %8, label %crec_bit64_type.exit

8:                                                ; preds = %2
  %9 = and i64 %.val, 140737488355327
  %10 = inttoptr i64 %9 to ptr
  %11 = getelementptr inbounds nuw i8, ptr %10, i64 10
  %12 = load i16, ptr %11, align 2, !tbaa !31
  %13 = zext i16 %12 to i32
  %14 = tail call ptr @lj_ctype_rawref(ptr noundef %5, i32 noundef %13) #8
  %15 = load i32, ptr %14, align 8, !tbaa !53
  %.mask9.i = and i32 %15, -268435456
  %16 = icmp eq i32 %.mask9.i, 1342177280
  br i1 %16, label %17, label %22

17:                                               ; preds = %8
  %18 = and i32 %15, 65535
  %19 = load ptr, ptr %5, align 8, !tbaa !45
  %20 = zext nneg i32 %18 to i64
  %21 = getelementptr inbounds nuw %struct.CType, ptr %19, i64 %20
  %.pre.i = load i32, ptr %21, align 8, !tbaa !53
  br label %22

22:                                               ; preds = %17, %8
  %23 = phi i32 [ %.pre.i, %17 ], [ %15, %8 ]
  %.0.i = phi ptr [ %21, %17 ], [ %14, %8 ]
  %24 = and i32 %23, -58720256
  %25 = icmp eq i32 %24, 8388608
  br i1 %25, label %26, label %30

26:                                               ; preds = %22
  %27 = getelementptr inbounds nuw i8, ptr %.0.i, i64 4
  %28 = load i32, ptr %27, align 4, !tbaa !57
  %29 = icmp eq i32 %28, 8
  br i1 %29, label %31, label %30

30:                                               ; preds = %26, %22
  br label %31

31:                                               ; preds = %30, %26
  %.1.i.ph = phi i32 [ 12, %26 ], [ 11, %30 ]
  %32 = load ptr, ptr %5, align 8, !tbaa !45
  %33 = zext nneg i32 %.1.i.ph to i64
  %34 = getelementptr inbounds nuw %struct.CType, ptr %32, i64 %33
  %35 = getelementptr inbounds nuw i8, ptr %0, i64 160
  %36 = load ptr, ptr %35, align 8, !tbaa !4
  %37 = load i32, ptr %36, align 4, !tbaa !27
  %38 = load ptr, ptr %1, align 8, !tbaa !28
  %39 = and i32 %37, 520093696
  %40 = icmp eq i32 %39, 67108864
  br i1 %40, label %41, label %crec_bit64_arg.exit, !prof !61

41:                                               ; preds = %31
  %42 = load i64, ptr %38, align 8, !tbaa !31
  %43 = and i64 %42, 140737488355327
  %44 = inttoptr i64 %43 to ptr
  %45 = tail call i32 @lj_strscan_num(ptr noundef %44, ptr noundef nonnull %38) #8
  %.not.i = icmp eq i32 %45, 0
  br i1 %.not.i, label %crec_bit64_arg.exit, label %46

46:                                               ; preds = %41
  %47 = trunc i32 %37 to i16
  %48 = getelementptr inbounds nuw i8, ptr %0, i64 184
  %49 = getelementptr inbounds nuw i8, ptr %0, i64 188
  store i16 24206, ptr %49, align 4, !tbaa !31
  store i16 %47, ptr %48, align 8, !tbaa !31
  %50 = getelementptr inbounds nuw i8, ptr %0, i64 186
  store i16 0, ptr %50, align 2, !tbaa !31
  %51 = tail call i32 @lj_opt_fold(ptr noundef nonnull %0) #8
  br label %crec_bit64_arg.exit

crec_bit64_arg.exit:                              ; preds = %31, %41, %46
  %.0.i21 = phi i32 [ %51, %46 ], [ %37, %41 ], [ %37, %31 ]
  %52 = tail call fastcc i32 @crec_ct_tv(ptr noundef nonnull %0, ptr noundef nonnull %34, i32 noundef 0, i32 noundef %.0.i21, ptr noundef %38)
  %53 = getelementptr inbounds nuw i8, ptr %1, i64 16
  %54 = load i32, ptr %53, align 8, !tbaa !63
  %55 = shl i32 %54, 8
  %56 = add nuw nsw i32 %.1.i.ph, 10
  %57 = or disjoint i32 %55, %56
  %58 = trunc i32 %57 to i16
  %59 = trunc i32 %52 to i16
  %60 = getelementptr inbounds nuw i8, ptr %0, i64 184
  %61 = getelementptr inbounds nuw i8, ptr %0, i64 188
  store i16 %58, ptr %61, align 4, !tbaa !31
  store i16 %59, ptr %60, align 8, !tbaa !31
  %62 = getelementptr inbounds nuw i8, ptr %0, i64 186
  store i16 0, ptr %62, align 2, !tbaa !31
  %63 = tail call i32 @lj_opt_fold(ptr noundef nonnull %0) #8
  %64 = tail call i32 @lj_ir_kint(ptr noundef nonnull %0, i32 noundef %.1.i.ph) #8
  %65 = trunc i32 %64 to i16
  %66 = trunc i32 %63 to i16
  store i16 21642, ptr %61, align 4, !tbaa !31
  store i16 %65, ptr %60, align 8, !tbaa !31
  store i16 %66, ptr %62, align 2, !tbaa !31
  %67 = tail call i32 @lj_opt_fold(ptr noundef nonnull %0) #8
  %68 = load ptr, ptr %35, align 8, !tbaa !4
  store i32 %67, ptr %68, align 4, !tbaa !27
  br label %crec_bit64_type.exit

crec_bit64_type.exit:                             ; preds = %2, %crec_bit64_arg.exit
  %.0 = phi i32 [ 1, %crec_bit64_arg.exit ], [ 0, %2 ]
  ret i32 %.0
}